target datalayout = "e-m:e-p270:32:32-p271:32:32-p272:64:64-i64:64-i128:128-f80:128-n8:16:32:64-S128"
target triple = "x86_64-pc-linux-gnu"

%struct.ossl_param_st = type { ptr, i32, ptr, i64, i64 }

@.str.53 = private unnamed_addr constant [31 x i8] c"../openssl/test/evp_kdf_test.c\00", align 1
@.str.65 = private unnamed_addr constant [37 x i8] c"EVP_KDF_CTX_set_params(kctx, params)\00", align 1
@.str.67 = private unnamed_addr constant [2 x i8] c"0\00", align 1
@.str.125 = private unnamed_addr constant [41 x i8] c"kctx = get_kdfbyname(OSSL_KDF_NAME_HKDF)\00", align 1
@.str.126 = private unnamed_addr constant [5 x i8] c"HKDF\00", align 1
@.str.136 = private unnamed_addr constant [4 x i8] c"BAD\00", align 1

; Function Attrs: nounwind uwtable
define internal ptr @get_kdfbyname_libctx(ptr noundef %0, ptr noundef %1) #0 {
  %3 = alloca ptr, align 8
  %4 = alloca ptr, align 8
  %5 = alloca ptr, align 8
  %6 = alloca ptr, align 8
  store ptr %0, ptr %3, align 8, !tbaa !11
  store ptr %1, ptr %4, align 8, !tbaa !18
  call void @llvm.lifetime.start.p0(i64 8, ptr %5) #6
  %7 = load ptr, ptr %3, align 8, !tbaa !11
  %8 = load ptr, ptr %4, align 8, !tbaa !18
  %9 = call ptr @EVP_KDF_fetch(ptr noundef %7, ptr noundef %8, ptr noundef null)
  store ptr %9, ptr %5, align 8, !tbaa !26
  call void @llvm.lifetime.start.p0(i64 8, ptr %6) #6
  %10 = load ptr, ptr %5, align 8, !tbaa !26
  %11 = call ptr @EVP_KDF_CTX_new(ptr noundef %10)
  store ptr %11, ptr %6, align 8, !tbaa !8
  %12 = load ptr, ptr %5, align 8, !tbaa !26
  call void @EVP_KDF_free(ptr noundef %12)
  %13 = load ptr, ptr %6, align 8, !tbaa !8
  call void @llvm.lifetime.end.p0(i64 8, ptr %6) #6
  call void @llvm.lifetime.end.p0(i64 8, ptr %5) #6
  ret ptr %13
}

; Function Attrs: nounwind uwtable
define internal ptr @get_kdfbyname(ptr noundef %0) #0 {
  %2 = alloca ptr, align 8
  store ptr %0, ptr %2, align 8, !tbaa !18
  %3 = load ptr, ptr %2, align 8, !tbaa !18
  %4 = call ptr @get_kdfbyname_libctx(ptr noundef null, ptr noundef %3)
  ret ptr %4
}

; Function Attrs: nounwind uwtable
define internal i32 @do_kdf_hkdf_set_invalid_param(ptr noundef %0, i32 noundef %1) #0 {
  %3 = alloca ptr, align 8
  %4 = alloca i32, align 4
  %5 = alloca i32, align 4
  %6 = alloca ptr, align 8
  %7 = alloca [2 x %struct.ossl_param_st], align 16
  %8 = alloca [2 x i8], align 1
  %9 = alloca %struct.ossl_param_st, align 8
  %10 = alloca %struct.ossl_param_st, align 8
  %11 = alloca %struct.ossl_param_st, align 8
  store ptr %0, ptr %3, align 8, !tbaa !18
  store i32 %1, ptr %4, align 4, !tbaa !4
  call void @llvm.lifetime.start.p0(i64 4, ptr %5) #6
  store i32 0, ptr %5, align 4, !tbaa !4
  call void @llvm.lifetime.start.p0(i64 8, ptr %6) #6
  store ptr null, ptr %6, align 8, !tbaa !8
  call void @llvm.lifetime.start.p0(i64 80, ptr %7) #6
  call void @llvm.lifetime.start.p0(i64 2, ptr %8) #6
  %12 = call ptr @get_kdfbyname(ptr noundef @.str.126)
  store ptr %12, ptr %6, align 8, !tbaa !8
  %13 = call i32 @test_ptr(ptr noundef @.str.53, i32 noundef 373, ptr noundef @.str.125, ptr noundef %12)
  %14 = icmp ne i32 %13, 0
  br i1 %14, label %16, label %15

15:                                               ; preds = %2
  br label %35

16:                                               ; preds = %2
  %17 = load i32, ptr %4, align 4, !tbaa !4
  %18 = icmp eq i32 %17, 4
  br i1 %18, label %19, label %22

19:                                               ; preds = %16
  %20 = getelementptr inbounds [2 x %struct.ossl_param_st], ptr %7, i64 0, i64 0
  call void @llvm.lifetime.start.p0(i64 40, ptr %9) #6
  %21 = load ptr, ptr %3, align 8, !tbaa !18
  call void @OSSL_PARAM_construct_utf8_string(ptr dead_on_unwind writable sret(%struct.ossl_param_st) align 8 %9, ptr noundef %21, ptr noundef @.str.136, i64 noundef 0)
  call void @llvm.memcpy.p0.p0.i64(ptr align 16 %20, ptr align 8 %9, i64 40, i1 false), !tbaa.struct !17
  call void @llvm.lifetime.end.p0(i64 40, ptr %9) #6
  br label %26

22:                                               ; preds = %16
  %23 = getelementptr inbounds [2 x %struct.ossl_param_st], ptr %7, i64 0, i64 0
  call void @llvm.lifetime.start.p0(i64 40, ptr %10) #6
  %24 = load ptr, ptr %3, align 8, !tbaa !18
  %25 = getelementptr inbounds [2 x i8], ptr %8, i64 0, i64 0
  call void @OSSL_PARAM_construct_octet_string(ptr dead_on_unwind writable sret(%struct.ossl_param_st) align 8 %10, ptr noundef %24, ptr noundef %25, i64 noundef 2)
  call void @llvm.memcpy.p0.p0.i64(ptr align 16 %23, ptr align 8 %10, i64 40, i1 false), !tbaa.struct !17
  call void @llvm.lifetime.end.p0(i64 40, ptr %10) #6
  br label %26

26:                                               ; preds = %22, %19
  %27 = getelementptr inbounds [2 x %struct.ossl_param_st], ptr %7, i64 0, i64 1
  call void @llvm.lifetime.start.p0(i64 40, ptr %11) #6
  call void @OSSL_PARAM_construct_end(ptr dead_on_unwind writable sret(%struct.ossl_param_st) align 8 %11)
  call void @llvm.memcpy.p0.p0.i64(ptr align 8 %27, ptr align 8 %11, i64 40, i1 false), !tbaa.struct !17
  call void @llvm.lifetime.end.p0(i64 40, ptr %11) #6
  %28 = load ptr, ptr %6, align 8, !tbaa !8
  %29 = getelementptr inbounds [2 x %struct.ossl_param_st], ptr %7, i64 0, i64 0
  %30 = call i32 @EVP_KDF_CTX_set_params(ptr noundef %28, ptr noundef %29)
  %31 = call i32 @test_int_eq(ptr noundef @.str.53, i32 noundef 381, ptr noundef @.str.65, ptr noundef @.str.67, i32 noundef %30, i32 noundef 0)
  %32 = icmp ne i32 %31, 0
  br i1 %32, label %34, label %33

33:                                               ; preds = %26
  br label %35

34:                                               ; preds = %26
  store i32 1, ptr %5, align 4, !tbaa !4
  br label %35

35:                                               ; preds = %34, %33, %15
  %36 = load ptr, ptr %6, align 8, !tbaa !8
  call void @EVP_KDF_CTX_free(ptr noundef %36)
  %37 = load i32, ptr %5, align 4, !tbaa !4
  call void @llvm.lifetime.end.p0(i64 2, ptr %8) #6
  call void @llvm.lifetime.end.p0(i64 80, ptr %7) #6
  call void @llvm.lifetime.end.p0(i64 8, ptr %6) #6
  call void @llvm.lifetime.end.p0(i64 4, ptr %5) #6
  ret i32 %37
}