; Function Attrs: nounwind uwtable
define internal fastcc range(i32 0, 2) i32 @do_kdf_hkdf_set_invalid_param(ptr noundef %0, i32 noundef range(i32 4, 6) %1) unnamed_addr #0 {
  %3 = alloca [2 x %struct.ossl_param_st], align 16
  %4 = alloca [2 x i8], align 1
  %5 = alloca %struct.ossl_param_st, align 8
  call void @llvm.lifetime.start.p0(i64 80, ptr nonnull %3) #6
  call void @llvm.lifetime.start.p0(i64 2, ptr nonnull %4) #6
  %6 = tail call ptr @EVP_KDF_fetch(ptr noundef null, ptr noundef nonnull @.str.126, ptr noundef null) #6
  %7 = tail call ptr @EVP_KDF_CTX_new(ptr noundef %6) #6
  tail call void @EVP_KDF_free(ptr noundef %6) #6
  %8 = tail call i32 @test_ptr(ptr noundef nonnull @.str.53, i32 noundef 373, ptr noundef nonnull @.str.125, ptr noundef %7) #6
  %.not = icmp eq i32 %8, 0
  br i1 %.not, label %17, label %9

9:                                                ; preds = %2
  %10 = icmp eq i32 %1, 4
  br i1 %10, label %11, label %12

11:                                               ; preds = %9
  call void @OSSL_PARAM_construct_utf8_string(ptr dead_on_unwind nonnull writable sret(%struct.ossl_param_st) align 8 %3, ptr noundef %0, ptr noundef nonnull @.str.136, i64 noundef 0) #6
  br label %13

12:                                               ; preds = %9
  call void @OSSL_PARAM_construct_octet_string(ptr dead_on_unwind nonnull writable sret(%struct.ossl_param_st) align 8 %3, ptr noundef %0, ptr noundef nonnull %4, i64 noundef 2) #6
  br label %13

13:                                               ; preds = %12, %11
  %14 = getelementptr inbounds nuw i8, ptr %3, i64 40
  call void @llvm.lifetime.start.p0(i64 40, ptr nonnull %5) #6
  call void @OSSL_PARAM_construct_end(ptr dead_on_unwind nonnull writable sret(%struct.ossl_param_st) align 8 %5) #6
  call void @llvm.memcpy.p0.p0.i64(ptr noundef nonnull align 8 dereferenceable(40) %14, ptr noundef nonnull align 8 dereferenceable(40) %5, i64 40, i1 false), !tbaa.struct !10
  call void @llvm.lifetime.end.p0(i64 40, ptr nonnull %5) #6
  %15 = call i32 @EVP_KDF_CTX_set_params(ptr noundef %7, ptr noundef nonnull %3) #6
  %16 = call i32 @test_int_eq(ptr noundef nonnull @.str.53, i32 noundef 381, ptr noundef nonnull @.str.65, ptr noundef nonnull @.str.67, i32 noundef %15, i32 noundef 0) #6
  %.not5 = icmp ne i32 %16, 0
  %spec.select = zext i1 %.not5 to i32
  br label %17

17:                                               ; preds = %13, %2
  %.0 = phi i32 [ 0, %2 ], [ %spec.select, %13 ]
  call void @EVP_KDF_CTX_free(ptr noundef %7) #6
  call void @llvm.lifetime.end.p0(i64 2, ptr nonnull %4) #6
  call void @llvm.lifetime.end.p0(i64 80, ptr nonnull %3) #6
  ret i32 %.0
}